target datalayout = "e-m:e-p270:32:32-p271:32:32-p272:64:64-i64:64-i128:128-f80:128-n8:16:32:64-S128"
target triple = "x86_64-pc-linux-gnu"

%struct.lv_color_t = type { i8, i8, i8 }
%struct._lv_font_t = type { ptr, ptr, ptr, i32, i32, i8, i8, i8, ptr, ptr, ptr }
%union.lv_style_value_t = type { ptr }

@__const.lv_style_prop_get_default.white = private unnamed_addr constant %struct.lv_color_t { i8 -1, i8 -1, i8 -1 }, align 1
@lv_font_montserrat_14 = external constant %struct._lv_font_t, align 8

; Function Attrs: nounwind uwtable
define ptr @lv_style_prop_get_default(i8 noundef zeroext %0) #0 {
  %2 = alloca %union.lv_style_value_t, align 8
  %3 = alloca i8, align 1
  %4 = alloca %struct.lv_color_t, align 1
  %5 = alloca %struct.lv_color_t, align 1
  %6 = alloca i32, align 4
  store i8 %0, ptr %3, align 1, !tbaa !13
  call void @llvm.lifetime.start.p0(i64 3, ptr %4) #6
  call void @llvm.memset.p0.i64(ptr align 1 %4, i8 0, i64 3, i1 false)
  call void @llvm.lifetime.start.p0(i64 3, ptr %5) #6
  call void @llvm.memcpy.p0.p0.i64(ptr align 1 %5, ptr align 1 @__const.lv_style_prop_get_default.white, i64 3, i1 false)
  %7 = load i8, ptr %3, align 1, !tbaa !13
  %8 = zext i8 %7 to i32
  switch i32 %8, label %26 [
    i32 108, label %9
    i32 109, label %9
    i32 28, label %11
    i32 35, label %13
    i32 49, label %13
    i32 61, label %13
    i32 57, label %13
    i32 82, label %13
    i32 76, label %13
    i32 88, label %13
    i32 69, label %13
    i32 95, label %15
    i32 96, label %15
    i32 50, label %15
    i32 89, label %15
    i32 68, label %15
    i32 37, label %15
    i32 36, label %15
    i32 41, label %15
    i32 58, label %15
    i32 62, label %15
    i32 77, label %15
    i32 83, label %15
    i32 34, label %17
    i32 52, label %19
    i32 90, label %21
    i32 5, label %22
    i32 7, label %22
    i32 116, label %24
  ]

9:                                                ; preds = %1, %1
  store i32 256, ptr %2, align 8, !tbaa !13
  %10 = getelementptr i8, ptr %2, i64 4
  call void @llvm.memset.p0.i64(ptr align 4 %10, i8 0, i64 4, i1 false)
  store i32 1, ptr %6, align 4
  br label %27

11:                                               ; preds = %1
  call void @llvm.memcpy.p0.p0.i64(ptr align 8 %2, ptr align 1 %5, i64 3, i1 false), !tbaa.struct !44
  %12 = getelementptr i8, ptr %2, i64 3
  call void @llvm.memset.p0.i64(ptr align 1 %12, i8 0, i64 5, i1 false)
  store i32 1, ptr %6, align 4
  br label %27

13:                                               ; preds = %1, %1, %1, %1, %1, %1, %1, %1
  call void @llvm.memcpy.p0.p0.i64(ptr align 8 %2, ptr align 1 %4, i64 3, i1 false), !tbaa.struct !44
  %14 = getelementptr i8, ptr %2, i64 3
  call void @llvm.memset.p0.i64(ptr align 1 %14, i8 0, i64 5, i1 false)
  store i32 1, ptr %6, align 4
  br label %27

15:                                               ; preds = %1, %1, %1, %1, %1, %1, %1, %1, %1, %1, %1, %1
  store i32 255, ptr %2, align 8, !tbaa !13
  %16 = getelementptr i8, ptr %2, i64 4
  call void @llvm.memset.p0.i64(ptr align 4 %16, i8 0, i64 4, i1 false)
  store i32 1, ptr %6, align 4
  br label %27

17:                                               ; preds = %1
  store i32 255, ptr %2, align 8, !tbaa !13
  %18 = getelementptr i8, ptr %2, i64 4
  call void @llvm.memset.p0.i64(ptr align 4 %18, i8 0, i64 4, i1 false)
  store i32 1, ptr %6, align 4
  br label %27

19:                                               ; preds = %1
  store i32 15, ptr %2, align 8, !tbaa !13
  %20 = getelementptr i8, ptr %2, i64 4
  call void @llvm.memset.p0.i64(ptr align 4 %20, i8 0, i64 4, i1 false)
  store i32 1, ptr %6, align 4
  br label %27

21:                                               ; preds = %1
  store ptr @lv_font_montserrat_14, ptr %2, align 8, !tbaa !13
  store i32 1, ptr %6, align 4
  br label %27

22:                                               ; preds = %1, %1
  store i32 536870911, ptr %2, align 8, !tbaa !13
  %23 = getelementptr i8, ptr %2, i64 4
  call void @llvm.memset.p0.i64(ptr align 4 %23, i8 0, i64 4, i1 false)
  store i32 1, ptr %6, align 4
  br label %27

24:                                               ; preds = %1
  store i32 256, ptr %2, align 8, !tbaa !13
  %25 = getelementptr i8, ptr %2, i64 4
  call void @llvm.memset.p0.i64(ptr align 4 %25, i8 0, i64 4, i1 false)
  store i32 1, ptr %6, align 4
  br label %27

26:                                               ; preds = %1
  store ptr null, ptr %2, align 8, !tbaa !13
  store i32 1, ptr %6, align 4
  br label %27

27:                                               ; preds = %26, %24, %22, %21, %19, %17, %15, %13, %11, %9
  call void @llvm.lifetime.end.p0(i64 3, ptr %5) #6
  call void @llvm.lifetime.end.p0(i64 3, ptr %4) #6
  %28 = getelementptr inbounds nuw %union.lv_style_value_t, ptr %2, i32 0, i32 0
  %29 = load ptr, ptr %28, align 8
  ret ptr %29
}